target datalayout = "e-m:e-p270:32:32-p271:32:32-p272:64:64-i64:64-i128:128-f80:128-n8:16:32:64-S128"
target triple = "x86_64-pc-linux-gnu"

%"class.std::__1::pmr::memory_resource" = type { ptr }
%"class.std::__1::pmr::unsynchronized_pool_resource::__adhoc_pool" = type { ptr }
%"struct.std::__1::pmr::unsynchronized_pool_resource::__adhoc_pool::__chunk_footer" = type { ptr, ptr, i64 }
%"class.std::__1::pmr::unsynchronized_pool_resource" = type { %"class.std::__1::pmr::memory_resource", ptr, %"class.std::__1::pmr::unsynchronized_pool_resource::__adhoc_pool", ptr, i32, i32 }
%"class.std::__1::pmr::unsynchronized_pool_resource::__fixed_pool" = type { ptr, ptr }
%"struct.std::__1::pmr::unsynchronized_pool_resource::__fixed_pool::__chunk_footer" = type { ptr, ptr, i64 }

; Function Attrs: mustprogress nounwind uwtable
define linkonce_odr hidden noundef i64 @_ZNSt3__13pmr28unsynchronized_pool_resource12__fixed_pool14__chunk_footer17__allocation_sizeEv(ptr noundef nonnull align 8 dereferenceable(24) %0) #0 comdat align 2 {
  %2 = alloca ptr, align 8
  store ptr %0, ptr %2, align 8, !tbaa !61
  %3 = load ptr, ptr %2, align 8
  %4 = getelementptr inbounds nuw %"struct.std::__1::pmr::unsynchronized_pool_resource::__fixed_pool::__chunk_footer", ptr %3, i32 0, i32 1
  %5 = load ptr, ptr %4, align 8, !tbaa !62
  %6 = ptrtoint ptr %3 to i64
  %7 = ptrtoint ptr %5 to i64
  %8 = sub i64 %6, %7
  %9 = add i64 %8, 24
  ret i64 %9
}

; Function Attrs: mustprogress nounwind uwtable
define linkonce_odr hidden noundef i64 @_ZNSt3__13pmr28unsynchronized_pool_resource12__adhoc_pool14__chunk_footer17__allocation_sizeEv(ptr noundef nonnull align 8 dereferenceable(24) %0) #0 comdat align 2 {
  %2 = alloca ptr, align 8
  store ptr %0, ptr %2, align 8, !tbaa !24
  %3 = load ptr, ptr %2, align 8
  %4 = getelementptr inbounds nuw %"struct.std::__1::pmr::unsynchronized_pool_resource::__adhoc_pool::__chunk_footer", ptr %3, i32 0, i32 1
  %5 = load ptr, ptr %4, align 8, !tbaa !25
  %6 = ptrtoint ptr %3 to i64
  %7 = ptrtoint ptr %5 to i64
  %8 = sub i64 %6, %7
  %9 = add i64 %8, 24
  ret i64 %9
}

; Function Attrs: mustprogress uwtable
define linkonce_odr hidden void @_ZNSt3__13pmr15memory_resource10deallocateB8ne210000EPvmm(ptr noundef nonnull align 8 dereferenceable(8) %0, ptr noundef nonnull %1, i64 noundef %2, i64 noundef %3) #5 comdat align 2 {
  %5 = alloca ptr, align 8
  %6 = alloca ptr, align 8
  %7 = alloca i64, align 8
  %8 = alloca i64, align 8
  store ptr %0, ptr %5, align 8, !tbaa !4
  store ptr %1, ptr %6, align 8, !tbaa !29
  store i64 %2, ptr %7, align 8, !tbaa !30
  store i64 %3, ptr %8, align 8, !tbaa !30
  %9 = load ptr, ptr %5, align 8
  %10 = load ptr, ptr %6, align 8, !tbaa !29
  %11 = load i64, ptr %7, align 8, !tbaa !30
  %12 = load i64, ptr %8, align 8, !tbaa !30
  %13 = load ptr, ptr %9, align 8, !tbaa !31
  %14 = getelementptr inbounds ptr, ptr %13, i64 3
  %15 = load ptr, ptr %14, align 8
  call void %15(ptr noundef nonnull align 8 dereferenceable(8) %9, ptr noundef %10, i64 noundef %11, i64 noundef %12)
  ret void
}

; Function Attrs: mustprogress uwtable
define linkonce_odr hidden void @_ZNSt3__13pmr28unsynchronized_pool_resource12__fixed_pool13__release_ptrEPNS0_15memory_resourceE(ptr noundef nonnull align 8 dereferenceable(16) %0, ptr noundef %1) #5 comdat align 2 {
  %3 = alloca ptr, align 8
  %4 = alloca ptr, align 8
  %5 = alloca ptr, align 8
  store ptr %0, ptr %3, align 8, !tbaa !53
  store ptr %1, ptr %4, align 8, !tbaa !4
  %6 = load ptr, ptr %3, align 8
  %7 = getelementptr inbounds nuw %"class.std::__1::pmr::unsynchronized_pool_resource::__fixed_pool", ptr %6, i32 0, i32 1
  store ptr null, ptr %7, align 8, !tbaa !54
  br label %8

8:                                                ; preds = %12, %2
  %9 = getelementptr inbounds nuw %"class.std::__1::pmr::unsynchronized_pool_resource::__fixed_pool", ptr %6, i32 0, i32 0
  %10 = load ptr, ptr %9, align 8, !tbaa !58
  %11 = icmp ne ptr %10, null
  br i1 %11, label %12, label %31

12:                                               ; preds = %8
  call void @llvm.lifetime.start.p0(i64 8, ptr %5) #3
  %13 = getelementptr inbounds nuw %"class.std::__1::pmr::unsynchronized_pool_resource::__fixed_pool", ptr %6, i32 0, i32 0
  %14 = load ptr, ptr %13, align 8, !tbaa !58
  %15 = getelementptr inbounds nuw %"struct.std::__1::pmr::unsynchronized_pool_resource::__fixed_pool::__chunk_footer", ptr %14, i32 0, i32 0
  %16 = load ptr, ptr %15, align 8, !tbaa !59
  store ptr %16, ptr %5, align 8, !tbaa !61
  %17 = load ptr, ptr %4, align 8, !tbaa !4
  %18 = getelementptr inbounds nuw %"class.std::__1::pmr::unsynchronized_pool_resource::__fixed_pool", ptr %6, i32 0, i32 0
  %19 = load ptr, ptr %18, align 8, !tbaa !58
  %20 = getelementptr inbounds nuw %"struct.std::__1::pmr::unsynchronized_pool_resource::__fixed_pool::__chunk_footer", ptr %19, i32 0, i32 1
  %21 = load ptr, ptr %20, align 8, !tbaa !62
  %22 = getelementptr inbounds nuw %"class.std::__1::pmr::unsynchronized_pool_resource::__fixed_pool", ptr %6, i32 0, i32 0
  %23 = load ptr, ptr %22, align 8, !tbaa !58
  %24 = call noundef i64 @_ZNSt3__13pmr28unsynchronized_pool_resource12__fixed_pool14__chunk_footer17__allocation_sizeEv(ptr noundef nonnull align 8 dereferenceable(24) %23)
  %25 = getelementptr inbounds nuw %"class.std::__1::pmr::unsynchronized_pool_resource::__fixed_pool", ptr %6, i32 0, i32 0
  %26 = load ptr, ptr %25, align 8, !tbaa !58
  %27 = getelementptr inbounds nuw %"struct.std::__1::pmr::unsynchronized_pool_resource::__fixed_pool::__chunk_footer", ptr %26, i32 0, i32 2
  %28 = load i64, ptr %27, align 8, !tbaa !63
  call void @_ZNSt3__13pmr15memory_resource10deallocateB8ne210000EPvmm(ptr noundef nonnull align 8 dereferenceable(8) %17, ptr noundef %21, i64 noundef %24, i64 noundef %28)
  %29 = load ptr, ptr %5, align 8, !tbaa !61
  %30 = getelementptr inbounds nuw %"class.std::__1::pmr::unsynchronized_pool_resource::__fixed_pool", ptr %6, i32 0, i32 0
  store ptr %29, ptr %30, align 8, !tbaa !58
  call void @llvm.lifetime.end.p0(i64 8, ptr %5) #3
  br label %8, !llvm.loop !64

31:                                               ; preds = %8
  ret void
}

; Function Attrs: mustprogress uwtable
define dso_local void @_ZNSt3__13pmr28unsynchronized_pool_resource12__adhoc_pool13__release_ptrEPNS0_15memory_resourceE(ptr noundef nonnull align 8 dereferenceable(8) %0, ptr noundef %1) #5 align 2 {
  %3 = alloca ptr, align 8
  %4 = alloca ptr, align 8
  %5 = alloca ptr, align 8
  store ptr %0, ptr %3, align 8, !tbaa !15
  store ptr %1, ptr %4, align 8, !tbaa !4
  %6 = load ptr, ptr %3, align 8
  br label %7

7:                                                ; preds = %11, %2
  %8 = getelementptr inbounds nuw %"class.std::__1::pmr::unsynchronized_pool_resource::__adhoc_pool", ptr %6, i32 0, i32 0
  %9 = load ptr, ptr %8, align 8, !tbaa !17
  %10 = icmp ne ptr %9, null
  br i1 %10, label %11, label %30

11:                                               ; preds = %7
  call void @llvm.lifetime.start.p0(i64 8, ptr %5) #3
  %12 = getelementptr inbounds nuw %"class.std::__1::pmr::unsynchronized_pool_resource::__adhoc_pool", ptr %6, i32 0, i32 0
  %13 = load ptr, ptr %12, align 8, !tbaa !17
  %14 = getelementptr inbounds nuw %"struct.std::__1::pmr::unsynchronized_pool_resource::__adhoc_pool::__chunk_footer", ptr %13, i32 0, i32 0
  %15 = load ptr, ptr %14, align 8, !tbaa !20
  store ptr %15, ptr %5, align 8, !tbaa !24
  %16 = load ptr, ptr %4, align 8, !tbaa !4
  %17 = getelementptr inbounds nuw %"class.std::__1::pmr::unsynchronized_pool_resource::__adhoc_pool", ptr %6, i32 0, i32 0
  %18 = load ptr, ptr %17, align 8, !tbaa !17
  %19 = getelementptr inbounds nuw %"struct.std::__1::pmr::unsynchronized_pool_resource::__adhoc_pool::__chunk_footer", ptr %18, i32 0, i32 1
  %20 = load ptr, ptr %19, align 8, !tbaa !25
  %21 = getelementptr inbounds nuw %"class.std::__1::pmr::unsynchronized_pool_resource::__adhoc_pool", ptr %6, i32 0, i32 0
  %22 = load ptr, ptr %21, align 8, !tbaa !17
  %23 = call noundef i64 @_ZNSt3__13pmr28unsynchronized_pool_resource12__adhoc_pool14__chunk_footer17__allocation_sizeEv(ptr noundef nonnull align 8 dereferenceable(24) %22)
  %24 = getelementptr inbounds nuw %"class.std::__1::pmr::unsynchronized_pool_resource::__adhoc_pool", ptr %6, i32 0, i32 0
  %25 = load ptr, ptr %24, align 8, !tbaa !17
  %26 = getelementptr inbounds nuw %"struct.std::__1::pmr::unsynchronized_pool_resource::__adhoc_pool::__chunk_footer", ptr %25, i32 0, i32 2
  %27 = load i64, ptr %26, align 8, !tbaa !26
  call void @_ZNSt3__13pmr15memory_resource10deallocateB8ne210000EPvmm(ptr noundef nonnull align 8 dereferenceable(8) %16, ptr noundef %20, i64 noundef %23, i64 noundef %27)
  %28 = load ptr, ptr %5, align 8, !tbaa !24
  %29 = getelementptr inbounds nuw %"class.std::__1::pmr::unsynchronized_pool_resource::__adhoc_pool", ptr %6, i32 0, i32 0
  store ptr %28, ptr %29, align 8, !tbaa !17
  call void @llvm.lifetime.end.p0(i64 8, ptr %5) #3
  br label %7, !llvm.loop !27

30:                                               ; preds = %7
  ret void
}

; Function Attrs: mustprogress uwtable
define dso_local void @_ZNSt3__13pmr28unsynchronized_pool_resource7releaseEv(ptr noundef nonnull align 8 dereferenceable(40) %0) #5 align 2 {
  %2 = alloca ptr, align 8
  %3 = alloca i32, align 4
  %4 = alloca i32, align 4
  store ptr %0, ptr %2, align 8, !tbaa !34
  %5 = load ptr, ptr %2, align 8
  %6 = getelementptr inbounds nuw %"class.std::__1::pmr::unsynchronized_pool_resource", ptr %5, i32 0, i32 2
  %7 = getelementptr inbounds nuw %"class.std::__1::pmr::unsynchronized_pool_resource", ptr %5, i32 0, i32 1
  %8 = load ptr, ptr %7, align 8, !tbaa !45
  call void @_ZNSt3__13pmr28unsynchronized_pool_resource12__adhoc_pool13__release_ptrEPNS0_15memory_resourceE(ptr noundef nonnull align 8 dereferenceable(8) %6, ptr noundef %8)
  %9 = getelementptr inbounds nuw %"class.std::__1::pmr::unsynchronized_pool_resource", ptr %5, i32 0, i32 3
  %10 = load ptr, ptr %9, align 8, !tbaa !46
  %11 = icmp ne ptr %10, null
  br i1 %11, label %12, label %41

12:                                               ; preds = %1
  call void @llvm.lifetime.start.p0(i64 4, ptr %3) #3
  %13 = getelementptr inbounds nuw %"class.std::__1::pmr::unsynchronized_pool_resource", ptr %5, i32 0, i32 4
  %14 = load i32, ptr %13, align 8, !tbaa !38
  store i32 %14, ptr %3, align 4, !tbaa !36
  call void @llvm.lifetime.start.p0(i64 4, ptr %4) #3
  store i32 0, ptr %4, align 4, !tbaa !36
  br label %15

15:                                               ; preds = %28, %12
  %16 = load i32, ptr %4, align 4, !tbaa !36
  %17 = load i32, ptr %3, align 4, !tbaa !36
  %18 = icmp slt i32 %16, %17
  br i1 %18, label %20, label %19

19:                                               ; preds = %15
  call void @llvm.lifetime.end.p0(i64 4, ptr %4) #3
  br label %31

20:                                               ; preds = %15
  %21 = getelementptr inbounds nuw %"class.std::__1::pmr::unsynchronized_pool_resource", ptr %5, i32 0, i32 3
  %22 = load ptr, ptr %21, align 8, !tbaa !46
  %23 = load i32, ptr %4, align 4, !tbaa !36
  %24 = sext i32 %23 to i64
  %25 = getelementptr inbounds %"class.std::__1::pmr::unsynchronized_pool_resource::__fixed_pool", ptr %22, i64 %24
  %26 = getelementptr inbounds nuw %"class.std::__1::pmr::unsynchronized_pool_resource", ptr %5, i32 0, i32 1
  %27 = load ptr, ptr %26, align 8, !tbaa !45
  call void @_ZNSt3__13pmr28unsynchronized_pool_resource12__fixed_pool13__release_ptrEPNS0_15memory_resourceE(ptr noundef nonnull align 8 dereferenceable(16) %25, ptr noundef %27)
  br label %28

28:                                               ; preds = %20
  %29 = load i32, ptr %4, align 4, !tbaa !36
  %30 = add nsw i32 %29, 1
  store i32 %30, ptr %4, align 4, !tbaa !36
  br label %15, !llvm.loop !52

31:                                               ; preds = %19
  %32 = getelementptr inbounds nuw %"class.std::__1::pmr::unsynchronized_pool_resource", ptr %5, i32 0, i32 1
  %33 = load ptr, ptr %32, align 8, !tbaa !45
  %34 = getelementptr inbounds nuw %"class.std::__1::pmr::unsynchronized_pool_resource", ptr %5, i32 0, i32 3
  %35 = load ptr, ptr %34, align 8, !tbaa !46
  %36 = getelementptr inbounds nuw %"class.std::__1::pmr::unsynchronized_pool_resource", ptr %5, i32 0, i32 4
  %37 = load i32, ptr %36, align 8, !tbaa !38
  %38 = sext i32 %37 to i64
  %39 = mul i64 %38, 16
  call void @_ZNSt3__13pmr15memory_resource10deallocateB8ne210000EPvmm(ptr noundef nonnull align 8 dereferenceable(8) %33, ptr noundef %35, i64 noundef %39, i64 noundef 8)
  %40 = getelementptr inbounds nuw %"class.std::__1::pmr::unsynchronized_pool_resource", ptr %5, i32 0, i32 3
  store ptr null, ptr %40, align 8, !tbaa !46
  call void @llvm.lifetime.end.p0(i64 4, ptr %3) #3
  br label %41

41:                                               ; preds = %31, %1
  ret void
}