; Function Attrs: mustprogress uwtable
define dso_local void @_ZNSt3__13pmr28unsynchronized_pool_resource7releaseEv(ptr noundef nonnull align 8 captures(none) dereferenceable(40) %0) local_unnamed_addr #4 align 2 {
  %2 = getelementptr inbounds nuw i8, ptr %0, i64 16
  %3 = getelementptr inbounds nuw i8, ptr %0, i64 8
  %4 = load ptr, ptr %3, align 8, !tbaa !29
  %.pr.i = load ptr, ptr %2, align 8, !tbaa !4
  %.not3.i = icmp eq ptr %.pr.i, null
  br i1 %.not3.i, label %_ZNSt3__13pmr28unsynchronized_pool_resource12__adhoc_pool13__release_ptrEPNS0_15memory_resourceE.exit, label %.lr.ph.i

.lr.ph.i:                                         ; preds = %1, %.lr.ph.i
  %5 = phi ptr [ %6, %.lr.ph.i ], [ %.pr.i, %1 ]
  %6 = load ptr, ptr %5, align 8, !tbaa !10
  %7 = getelementptr inbounds nuw i8, ptr %5, i64 8
  %8 = load ptr, ptr %7, align 8, !tbaa !14
  %9 = ptrtoint ptr %5 to i64
  %10 = ptrtoint ptr %8 to i64
  %11 = add i64 %9, 24
  %12 = sub i64 %11, %10
  %13 = getelementptr inbounds nuw i8, ptr %5, i64 16
  %14 = load i64, ptr %13, align 8, !tbaa !15
  %15 = load ptr, ptr %4, align 8, !tbaa !16
  %16 = getelementptr inbounds nuw i8, ptr %15, i64 24
  %17 = load ptr, ptr %16, align 8
  tail call void %17(ptr noundef nonnull align 8 dereferenceable(8) %4, ptr noundef nonnull %8, i64 noundef %12, i64 noundef %14)
  store ptr %6, ptr %2, align 8, !tbaa !4
  %.not.i = icmp eq ptr %6, null
  br i1 %.not.i, label %_ZNSt3__13pmr28unsynchronized_pool_resource12__adhoc_pool13__release_ptrEPNS0_15memory_resourceE.exit, label %.lr.ph.i, !llvm.loop !18

_ZNSt3__13pmr28unsynchronized_pool_resource12__adhoc_pool13__release_ptrEPNS0_15memory_resourceE.exit: ; preds = %.lr.ph.i, %1
  %18 = getelementptr inbounds nuw i8, ptr %0, i64 24
  %19 = load ptr, ptr %18, align 8, !tbaa !35
  %.not = icmp eq ptr %19, null
  br i1 %.not, label %49, label %20

20:                                               ; preds = %_ZNSt3__13pmr28unsynchronized_pool_resource12__adhoc_pool13__release_ptrEPNS0_15memory_resourceE.exit
  %21 = getelementptr inbounds nuw i8, ptr %0, i64 32
  %22 = load i32, ptr %21, align 8, !tbaa !22
  %23 = icmp sgt i32 %22, 0
  br i1 %23, label %.lr.ph.preheader, label %._crit_edge

.lr.ph.preheader:                                 ; preds = %20
  %wide.trip.count = zext nneg i32 %22 to i64
  br label %.lr.ph

._crit_edge.loopexit:                             ; preds = %_ZNSt3__13pmr28unsynchronized_pool_resource12__fixed_pool13__release_ptrEPNS0_15memory_resourceE.exit
  %.pre = load ptr, ptr %18, align 8, !tbaa !35
  %.pre11 = load i32, ptr %21, align 8, !tbaa !22
  br label %._crit_edge

._crit_edge:                                      ; preds = %._crit_edge.loopexit, %20
  %24 = phi i32 [ %.pre11, %._crit_edge.loopexit ], [ %22, %20 ]
  %25 = phi ptr [ %.pre, %._crit_edge.loopexit ], [ %19, %20 ]
  %26 = load ptr, ptr %3, align 8, !tbaa !29
  %27 = sext i32 %24 to i64
  %28 = shl nsw i64 %27, 4
  %29 = load ptr, ptr %26, align 8, !tbaa !16
  %30 = getelementptr inbounds nuw i8, ptr %29, i64 24
  %31 = load ptr, ptr %30, align 8
  tail call void %31(ptr noundef nonnull align 8 dereferenceable(8) %26, ptr noundef nonnull %25, i64 noundef %28, i64 noundef 8)
  store ptr null, ptr %18, align 8, !tbaa !35
  br label %49

.lr.ph:                                           ; preds = %.lr.ph.preheader, %_ZNSt3__13pmr28unsynchronized_pool_resource12__fixed_pool13__release_ptrEPNS0_15memory_resourceE.exit
  %indvars.iv = phi i64 [ 0, %.lr.ph.preheader ], [ %indvars.iv.next, %_ZNSt3__13pmr28unsynchronized_pool_resource12__fixed_pool13__release_ptrEPNS0_15memory_resourceE.exit ]
  %32 = load ptr, ptr %18, align 8, !tbaa !35
  %33 = getelementptr inbounds nuw %"class.std::__1::pmr::unsynchronized_pool_resource::__fixed_pool", ptr %32, i64 %indvars.iv
  %34 = load ptr, ptr %3, align 8, !tbaa !29
  %35 = getelementptr inbounds nuw i8, ptr %33, i64 8
  store ptr null, ptr %35, align 8, !tbaa !36
  %.pr.i4 = load ptr, ptr %33, align 8, !tbaa !40
  %.not3.i5 = icmp eq ptr %.pr.i4, null
  br i1 %.not3.i5, label %_ZNSt3__13pmr28unsynchronized_pool_resource12__fixed_pool13__release_ptrEPNS0_15memory_resourceE.exit, label %.lr.ph.i6

.lr.ph.i6:                                        ; preds = %.lr.ph, %.lr.ph.i6
  %36 = phi ptr [ %37, %.lr.ph.i6 ], [ %.pr.i4, %.lr.ph ]
  %37 = load ptr, ptr %36, align 8, !tbaa !41
  %38 = getelementptr inbounds nuw i8, ptr %36, i64 8
  %39 = load ptr, ptr %38, align 8, !tbaa !43
  %40 = ptrtoint ptr %36 to i64
  %41 = ptrtoint ptr %39 to i64
  %42 = add i64 %40, 24
  %43 = sub i64 %42, %41
  %44 = getelementptr inbounds nuw i8, ptr %36, i64 16
  %45 = load i64, ptr %44, align 8, !tbaa !44
  %46 = load ptr, ptr %34, align 8, !tbaa !16
  %47 = getelementptr inbounds nuw i8, ptr %46, i64 24
  %48 = load ptr, ptr %47, align 8
  tail call void %48(ptr noundef nonnull align 8 dereferenceable(8) %34, ptr noundef nonnull %39, i64 noundef %43, i64 noundef %45)
  store ptr %37, ptr %33, align 8, !tbaa !40
  %.not.i7 = icmp eq ptr %37, null
  br i1 %.not.i7, label %_ZNSt3__13pmr28unsynchronized_pool_resource12__fixed_pool13__release_ptrEPNS0_15memory_resourceE.exit, label %.lr.ph.i6, !llvm.loop !45

_ZNSt3__13pmr28unsynchronized_pool_resource12__fixed_pool13__release_ptrEPNS0_15memory_resourceE.exit: ; preds = %.lr.ph.i6, %.lr.ph
  %indvars.iv.next = add nuw nsw i64 %indvars.iv, 1
  %exitcond.not = icmp eq i64 %indvars.iv.next, %wide.trip.count
  br i1 %exitcond.not, label %._crit_edge.loopexit, label %.lr.ph, !llvm.loop !46

49:                                               ; preds = %._crit_edge, %_ZNSt3__13pmr28unsynchronized_pool_resource12__adhoc_pool13__release_ptrEPNS0_15memory_resourceE.exit
  ret void
}